target datalayout = "e-m:e-p270:32:32-p271:32:32-p272:64:64-i64:64-i128:128-f80:128-n8:16:32:64-S128"
target triple = "x86_64-pc-linux-gnu"

%struct.H5C_class_t = type { i32, ptr, i32, i32, ptr, ptr, ptr, ptr, ptr, ptr, ptr, ptr, ptr, ptr }
%struct.H5FS_hdr_cache_ud_t = type { ptr, i16, ptr, ptr, i64 }
%struct.H5FS_t = type { %struct.H5C_cache_entry_t, i64, i64, i64, i64, i32, i16, i32, i32, i32, i64, i64, i64, i64, i32, i64, i64, ptr, i8, i32, i8, i8, i32, i64, i64, i64, ptr }
%struct.H5C_cache_entry_t = type { ptr, i64, i64, ptr, i8, ptr, i8, i8, i8, i8, i32, i8, i8, i8, i8, i8, i32, ptr, i32, i32, i32, i32, i32, i8, i8, ptr, ptr, ptr, ptr, ptr, ptr, i8, i32, i8, i64, ptr, i64, i64, i32, i8, i32, i32, i8, ptr, ptr, ptr }

@H5FS_init_g = external global i8, align 1
@H5_libterm_g = external global i8, align 1
@H5AC_FSPACE_HDR = external constant [1 x %struct.H5C_class_t], align 16
@.str = private unnamed_addr constant [101 x i8] c"generated/home/dtcxzyw/WorkSpace/Projects/compilers/llvm-opt-benchmark/bench/hdf5/hdf5/src/H5FSdbg.c\00", align 1
@__func__.H5FS_debug = private unnamed_addr constant [11 x i8] c"H5FS_debug\00", align 1
@H5E_FSPACE_g = external global i64, align 8
@H5E_CANTLOAD_g = external global i64, align 8
@.str.1 = private unnamed_addr constant [33 x i8] c"unable to load free space header\00", align 1
@.str.2 = private unnamed_addr constant [25 x i8] c"%*sFree Space Header...\0A\00", align 1
@.str.3 = private unnamed_addr constant [1 x i8] zeroinitializer, align 1
@.str.4 = private unnamed_addr constant [12 x i8] c"%*s%-*s %s\0A\00", align 1
@.str.5 = private unnamed_addr constant [19 x i8] c"Free space client:\00", align 1
@.str.6 = private unnamed_addr constant [13 x i8] c"Fractal heap\00", align 1
@.str.7 = private unnamed_addr constant [5 x i8] c"File\00", align 1
@.str.8 = private unnamed_addr constant [8 x i8] c"Unknown\00", align 1
@.str.9 = private unnamed_addr constant [13 x i8] c"%*s%-*s %lu\0A\00", align 1
@.str.10 = private unnamed_addr constant [26 x i8] c"Total free space tracked:\00", align 1
@.str.11 = private unnamed_addr constant [45 x i8] c"Total number of free space sections tracked:\00", align 1
@.str.12 = private unnamed_addr constant [52 x i8] c"Number of serializable free space sections tracked:\00", align 1
@.str.13 = private unnamed_addr constant [45 x i8] c"Number of ghost free space sections tracked:\00", align 1
@.str.14 = private unnamed_addr constant [12 x i8] c"%*s%-*s %u\0A\00", align 1
@.str.15 = private unnamed_addr constant [38 x i8] c"Number of free space section classes:\00", align 1
@.str.16 = private unnamed_addr constant [14 x i8] c"%*s%-*s %u%%\0A\00", align 1
@.str.17 = private unnamed_addr constant [16 x i8] c"Shrink percent:\00", align 1
@.str.18 = private unnamed_addr constant [16 x i8] c"Expand percent:\00", align 1
@.str.19 = private unnamed_addr constant [37 x i8] c"# of bits for section address space:\00", align 1
@.str.20 = private unnamed_addr constant [22 x i8] c"Maximum section size:\00", align 1
@.str.21 = private unnamed_addr constant [29 x i8] c"Serialized sections address:\00", align 1
@.str.22 = private unnamed_addr constant [31 x i8] c"Serialized sections size used:\00", align 1
@.str.23 = private unnamed_addr constant [36 x i8] c"Serialized sections size allocated:\00", align 1
@H5E_PROTECT_g = external global i64, align 8
@.str.24 = private unnamed_addr constant [36 x i8] c"unable to release free space header\00", align 1

; Function Attrs: nounwind uwtable
define i32 @H5FS_debug(ptr noundef %0, i64 noundef %1, ptr noundef %2, i32 noundef %3, i32 noundef %4) #0 {
  %6 = alloca ptr, align 8
  %7 = alloca i64, align 8
  %8 = alloca ptr, align 8
  %9 = alloca i32, align 4
  %10 = alloca i32, align 4
  %11 = alloca ptr, align 8
  %12 = alloca %struct.H5FS_hdr_cache_ud_t, align 8
  %13 = alloca i32, align 4
  %14 = alloca i8, align 1
  store ptr %0, ptr %6, align 8, !tbaa !3
  store i64 %1, ptr %7, align 8, !tbaa !8
  store ptr %2, ptr %8, align 8, !tbaa !10
  store i32 %3, ptr %9, align 4, !tbaa !12
  store i32 %4, ptr %10, align 4, !tbaa !12
  call void @llvm.lifetime.start.p0(i64 8, ptr %11) #5
  store ptr null, ptr %11, align 8, !tbaa !14
  call void @llvm.lifetime.start.p0(i64 40, ptr %12) #5
  call void @llvm.lifetime.start.p0(i64 4, ptr %13) #5
  store i32 0, ptr %13, align 4, !tbaa !12
  call void @llvm.lifetime.start.p0(i64 1, ptr %14) #5
  store i8 0, ptr %14, align 1, !tbaa !16
  %15 = load i8, ptr @H5FS_init_g, align 1, !tbaa !16, !range !18, !noundef !19
  %16 = trunc i8 %15 to i1
  br i1 %16, label %21, label %17

17:                                               ; preds = %5
  %18 = load i8, ptr @H5_libterm_g, align 1, !tbaa !16, !range !18, !noundef !19
  %19 = trunc i8 %18 to i1
  %20 = xor i1 %19, true
  br label %21

21:                                               ; preds = %17, %5
  %22 = phi i1 [ false, %5 ], [ %20, %17 ]
  %23 = xor i1 %22, true
  %24 = xor i1 %23, true
  %25 = zext i1 %24 to i32
  %26 = sext i32 %25 to i64
  %27 = call i64 @llvm.expect.i64(i64 %26, i64 0)
  %28 = icmp ne i64 %27, 0
  br i1 %28, label %29, label %30

29:                                               ; preds = %21
  store i8 1, ptr @H5FS_init_g, align 1, !tbaa !16
  br label %30

30:                                               ; preds = %29, %21
  %31 = load i8, ptr @H5FS_init_g, align 1, !tbaa !16, !range !18, !noundef !19
  %32 = trunc i8 %31 to i1
  br i1 %32, label %37, label %33

33:                                               ; preds = %30
  %34 = load i8, ptr @H5_libterm_g, align 1, !tbaa !16, !range !18, !noundef !19
  %35 = trunc i8 %34 to i1
  %36 = xor i1 %35, true
  br label %37

37:                                               ; preds = %33, %30
  %38 = phi i1 [ true, %30 ], [ %36, %33 ]
  %39 = xor i1 %38, true
  %40 = xor i1 %39, true
  %41 = zext i1 %40 to i32
  %42 = sext i32 %41 to i64
  %43 = call i64 @llvm.expect.i64(i64 %42, i64 1)
  %44 = icmp ne i64 %43, 0
  br i1 %44, label %45, label %208

45:                                               ; preds = %37
  %46 = load ptr, ptr %6, align 8, !tbaa !3
  %47 = getelementptr inbounds nuw %struct.H5FS_hdr_cache_ud_t, ptr %12, i32 0, i32 0
  store ptr %46, ptr %47, align 8, !tbaa !20
  %48 = getelementptr inbounds nuw %struct.H5FS_hdr_cache_ud_t, ptr %12, i32 0, i32 1
  store i16 0, ptr %48, align 8, !tbaa !24
  %49 = getelementptr inbounds nuw %struct.H5FS_hdr_cache_ud_t, ptr %12, i32 0, i32 2
  store ptr null, ptr %49, align 8, !tbaa !25
  %50 = getelementptr inbounds nuw %struct.H5FS_hdr_cache_ud_t, ptr %12, i32 0, i32 3
  store ptr null, ptr %50, align 8, !tbaa !26
  %51 = load i64, ptr %7, align 8, !tbaa !8
  %52 = getelementptr inbounds nuw %struct.H5FS_hdr_cache_ud_t, ptr %12, i32 0, i32 4
  store i64 %51, ptr %52, align 8, !tbaa !27
  %53 = load ptr, ptr %6, align 8, !tbaa !3
  %54 = load i64, ptr %7, align 8, !tbaa !8
  %55 = call ptr @H5AC_protect(ptr noundef %53, ptr noundef @H5AC_FSPACE_HDR, i64 noundef %54, ptr noundef %12, i32 noundef 128)
  store ptr %55, ptr %11, align 8, !tbaa !14
  %56 = icmp eq ptr null, %55
  br i1 %56, label %57, label %76

57:                                               ; preds = %45
  br label %58

58:                                               ; preds = %57
  br label %59

59:                                               ; preds = %58
  br label %60

60:                                               ; preds = %59
  %61 = load i64, ptr @H5E_FSPACE_g, align 8, !tbaa !8
  %62 = load i64, ptr @H5E_CANTLOAD_g, align 8, !tbaa !8
  %63 = call i32 (ptr, ptr, i32, i64, i64, ptr, ...) @H5E_printf_stack(ptr noundef @.str, ptr noundef @__func__.H5FS_debug, i32 noundef 106, i64 noundef %61, i64 noundef %62, ptr noundef @.str.1)
  br label %64

64:                                               ; preds = %60
  br label %65

65:                                               ; preds = %64
  store i8 1, ptr %14, align 1, !tbaa !16
  %66 = load i8, ptr %14, align 1, !tbaa !16, !range !18, !noundef !19
  %67 = trunc i8 %66 to i1
  %68 = zext i1 %67 to i8
  store i8 %68, ptr %14, align 1, !tbaa !16
  br label %69

69:                                               ; preds = %65
  br label %70

70:                                               ; preds = %69
  br label %71

71:                                               ; preds = %70
  store i32 -1, ptr %13, align 4, !tbaa !12
  br label %182

72:                                               ; No predecessors!
  br label %73

73:                                               ; preds = %72
  br label %74

74:                                               ; preds = %73
  br label %75

75:                                               ; preds = %74
  br label %76

76:                                               ; preds = %75, %45
  %77 = load ptr, ptr %8, align 8, !tbaa !10
  %78 = load i32, ptr %9, align 4, !tbaa !12
  %79 = call i32 (ptr, ptr, ...) @fprintf(ptr noundef %77, ptr noundef @.str.2, i32 noundef %78, ptr noundef @.str.3) #5
  %80 = load ptr, ptr %8, align 8, !tbaa !10
  %81 = load i32, ptr %9, align 4, !tbaa !12
  %82 = load i32, ptr %10, align 4, !tbaa !12
  %83 = load ptr, ptr %11, align 8, !tbaa !14
  %84 = getelementptr inbounds nuw %struct.H5FS_t, ptr %83, i32 0, i32 5
  %85 = load i32, ptr %84, align 8, !tbaa !28
  %86 = icmp eq i32 %85, 0
  br i1 %86, label %87, label %88

87:                                               ; preds = %76
  br label %94

88:                                               ; preds = %76
  %89 = load ptr, ptr %11, align 8, !tbaa !14
  %90 = getelementptr inbounds nuw %struct.H5FS_t, ptr %89, i32 0, i32 5
  %91 = load i32, ptr %90, align 8, !tbaa !28
  %92 = icmp eq i32 %91, 1
  %93 = select i1 %92, ptr @.str.7, ptr @.str.8
  br label %94

94:                                               ; preds = %88, %87
  %95 = phi ptr [ @.str.6, %87 ], [ %93, %88 ]
  %96 = call i32 (ptr, ptr, ...) @fprintf(ptr noundef %80, ptr noundef @.str.4, i32 noundef %81, ptr noundef @.str.3, i32 noundef %82, ptr noundef @.str.5, ptr noundef %95) #5
  %97 = load ptr, ptr %8, align 8, !tbaa !10
  %98 = load i32, ptr %9, align 4, !tbaa !12
  %99 = load i32, ptr %10, align 4, !tbaa !12
  %100 = load ptr, ptr %11, align 8, !tbaa !14
  %101 = getelementptr inbounds nuw %struct.H5FS_t, ptr %100, i32 0, i32 1
  %102 = load i64, ptr %101, align 8, !tbaa !39
  %103 = call i32 (ptr, ptr, ...) @fprintf(ptr noundef %97, ptr noundef @.str.9, i32 noundef %98, ptr noundef @.str.3, i32 noundef %99, ptr noundef @.str.10, i64 noundef %102) #5
  %104 = load ptr, ptr %8, align 8, !tbaa !10
  %105 = load i32, ptr %9, align 4, !tbaa !12
  %106 = load i32, ptr %10, align 4, !tbaa !12
  %107 = load ptr, ptr %11, align 8, !tbaa !14
  %108 = getelementptr inbounds nuw %struct.H5FS_t, ptr %107, i32 0, i32 2
  %109 = load i64, ptr %108, align 8, !tbaa !40
  %110 = call i32 (ptr, ptr, ...) @fprintf(ptr noundef %104, ptr noundef @.str.9, i32 noundef %105, ptr noundef @.str.3, i32 noundef %106, ptr noundef @.str.11, i64 noundef %109) #5
  %111 = load ptr, ptr %8, align 8, !tbaa !10
  %112 = load i32, ptr %9, align 4, !tbaa !12
  %113 = load i32, ptr %10, align 4, !tbaa !12
  %114 = load ptr, ptr %11, align 8, !tbaa !14
  %115 = getelementptr inbounds nuw %struct.H5FS_t, ptr %114, i32 0, i32 3
  %116 = load i64, ptr %115, align 8, !tbaa !41
  %117 = call i32 (ptr, ptr, ...) @fprintf(ptr noundef %111, ptr noundef @.str.9, i32 noundef %112, ptr noundef @.str.3, i32 noundef %113, ptr noundef @.str.12, i64 noundef %116) #5
  %118 = load ptr, ptr %8, align 8, !tbaa !10
  %119 = load i32, ptr %9, align 4, !tbaa !12
  %120 = load i32, ptr %10, align 4, !tbaa !12
  %121 = load ptr, ptr %11, align 8, !tbaa !14
  %122 = getelementptr inbounds nuw %struct.H5FS_t, ptr %121, i32 0, i32 4
  %123 = load i64, ptr %122, align 8, !tbaa !42
  %124 = call i32 (ptr, ptr, ...) @fprintf(ptr noundef %118, ptr noundef @.str.9, i32 noundef %119, ptr noundef @.str.3, i32 noundef %120, ptr noundef @.str.13, i64 noundef %123) #5
  %125 = load ptr, ptr %8, align 8, !tbaa !10
  %126 = load i32, ptr %9, align 4, !tbaa !12
  %127 = load i32, ptr %10, align 4, !tbaa !12
  %128 = load ptr, ptr %11, align 8, !tbaa !14
  %129 = getelementptr inbounds nuw %struct.H5FS_t, ptr %128, i32 0, i32 6
  %130 = load i16, ptr %129, align 4, !tbaa !43
  %131 = zext i16 %130 to i32
  %132 = call i32 (ptr, ptr, ...) @fprintf(ptr noundef %125, ptr noundef @.str.14, i32 noundef %126, ptr noundef @.str.3, i32 noundef %127, ptr noundef @.str.15, i32 noundef %131) #5
  %133 = load ptr, ptr %8, align 8, !tbaa !10
  %134 = load i32, ptr %9, align 4, !tbaa !12
  %135 = load i32, ptr %10, align 4, !tbaa !12
  %136 = load ptr, ptr %11, align 8, !tbaa !14
  %137 = getelementptr inbounds nuw %struct.H5FS_t, ptr %136, i32 0, i32 7
  %138 = load i32, ptr %137, align 8, !tbaa !44
  %139 = call i32 (ptr, ptr, ...) @fprintf(ptr noundef %133, ptr noundef @.str.16, i32 noundef %134, ptr noundef @.str.3, i32 noundef %135, ptr noundef @.str.17, i32 noundef %138) #5
  %140 = load ptr, ptr %8, align 8, !tbaa !10
  %141 = load i32, ptr %9, align 4, !tbaa !12
  %142 = load i32, ptr %10, align 4, !tbaa !12
  %143 = load ptr, ptr %11, align 8, !tbaa !14
  %144 = getelementptr inbounds nuw %struct.H5FS_t, ptr %143, i32 0, i32 8
  %145 = load i32, ptr %144, align 4, !tbaa !45
  %146 = call i32 (ptr, ptr, ...) @fprintf(ptr noundef %140, ptr noundef @.str.16, i32 noundef %141, ptr noundef @.str.3, i32 noundef %142, ptr noundef @.str.18, i32 noundef %145) #5
  %147 = load ptr, ptr %8, align 8, !tbaa !10
  %148 = load i32, ptr %9, align 4, !tbaa !12
  %149 = load i32, ptr %10, align 4, !tbaa !12
  %150 = load ptr, ptr %11, align 8, !tbaa !14
  %151 = getelementptr inbounds nuw %struct.H5FS_t, ptr %150, i32 0, i32 9
  %152 = load i32, ptr %151, align 8, !tbaa !46
  %153 = call i32 (ptr, ptr, ...) @fprintf(ptr noundef %147, ptr noundef @.str.14, i32 noundef %148, ptr noundef @.str.3, i32 noundef %149, ptr noundef @.str.19, i32 noundef %152) #5
  %154 = load ptr, ptr %8, align 8, !tbaa !10
  %155 = load i32, ptr %9, align 4, !tbaa !12
  %156 = load i32, ptr %10, align 4, !tbaa !12
  %157 = load ptr, ptr %11, align 8, !tbaa !14
  %158 = getelementptr inbounds nuw %struct.H5FS_t, ptr %157, i32 0, i32 10
  %159 = load i64, ptr %158, align 8, !tbaa !47
  %160 = call i32 (ptr, ptr, ...) @fprintf(ptr noundef %154, ptr noundef @.str.9, i32 noundef %155, ptr noundef @.str.3, i32 noundef %156, ptr noundef @.str.20, i64 noundef %159) #5
  %161 = load ptr, ptr %8, align 8, !tbaa !10
  %162 = load i32, ptr %9, align 4, !tbaa !12
  %163 = load i32, ptr %10, align 4, !tbaa !12
  %164 = load ptr, ptr %11, align 8, !tbaa !14
  %165 = getelementptr inbounds nuw %struct.H5FS_t, ptr %164, i32 0, i32 11
  %166 = load i64, ptr %165, align 8, !tbaa !48
  %167 = call i32 (ptr, ptr, ...) @fprintf(ptr noundef %161, ptr noundef @.str.9, i32 noundef %162, ptr noundef @.str.3, i32 noundef %163, ptr noundef @.str.21, i64 noundef %166) #5
  %168 = load ptr, ptr %8, align 8, !tbaa !10
  %169 = load i32, ptr %9, align 4, !tbaa !12
  %170 = load i32, ptr %10, align 4, !tbaa !12
  %171 = load ptr, ptr %11, align 8, !tbaa !14
  %172 = getelementptr inbounds nuw %struct.H5FS_t, ptr %171, i32 0, i32 12
  %173 = load i64, ptr %172, align 8, !tbaa !49
  %174 = call i32 (ptr, ptr, ...) @fprintf(ptr noundef %168, ptr noundef @.str.9, i32 noundef %169, ptr noundef @.str.3, i32 noundef %170, ptr noundef @.str.22, i64 noundef %173) #5
  %175 = load ptr, ptr %8, align 8, !tbaa !10
  %176 = load i32, ptr %9, align 4, !tbaa !12
  %177 = load i32, ptr %10, align 4, !tbaa !12
  %178 = load ptr, ptr %11, align 8, !tbaa !14
  %179 = getelementptr inbounds nuw %struct.H5FS_t, ptr %178, i32 0, i32 13
  %180 = load i64, ptr %179, align 8, !tbaa !50
  %181 = call i32 (ptr, ptr, ...) @fprintf(ptr noundef %175, ptr noundef @.str.9, i32 noundef %176, ptr noundef @.str.3, i32 noundef %177, ptr noundef @.str.23, i64 noundef %180) #5
  br label %182

182:                                              ; preds = %94, %71
  %183 = load ptr, ptr %11, align 8, !tbaa !14
  %184 = icmp ne ptr %183, null
  br i1 %184, label %185, label %207

185:                                              ; preds = %182
  %186 = load ptr, ptr %6, align 8, !tbaa !3
  %187 = load i64, ptr %7, align 8, !tbaa !8
  %188 = load ptr, ptr %11, align 8, !tbaa !14
  %189 = call i32 @H5AC_unprotect(ptr noundef %186, ptr noundef @H5AC_FSPACE_HDR, i64 noundef %187, ptr noundef %188, i32 noundef 0)
  %190 = icmp slt i32 %189, 0
  br i1 %190, label %191, label %207

191:                                              ; preds = %185
  br label %192

192:                                              ; preds = %191
  br label %193

193:                                              ; preds = %192
  br label %194

194:                                              ; preds = %193
  %195 = load i64, ptr @H5E_FSPACE_g, align 8, !tbaa !8
  %196 = load i64, ptr @H5E_PROTECT_g, align 8, !tbaa !8
  %197 = call i32 (ptr, ptr, i32, i64, i64, ptr, ...) @H5E_printf_stack(ptr noundef @.str, ptr noundef @__func__.H5FS_debug, i32 noundef 143, i64 noundef %195, i64 noundef %196, ptr noundef @.str.24)
  br label %198

198:                                              ; preds = %194
  br label %199

199:                                              ; preds = %198
  store i8 1, ptr %14, align 1, !tbaa !16
  %200 = load i8, ptr %14, align 1, !tbaa !16, !range !18, !noundef !19
  %201 = trunc i8 %200 to i1
  %202 = zext i1 %201 to i8
  store i8 %202, ptr %14, align 1, !tbaa !16
  br label %203

203:                                              ; preds = %199
  br label %204

204:                                              ; preds = %203
  store i32 -1, ptr %13, align 4, !tbaa !12
  br label %205

205:                                              ; preds = %204
  br label %206

206:                                              ; preds = %205
  br label %207

207:                                              ; preds = %206, %185, %182
  br label %208

208:                                              ; preds = %207, %37
  %209 = load i32, ptr %13, align 4, !tbaa !12
  call void @llvm.lifetime.end.p0(i64 1, ptr %14) #5
  call void @llvm.lifetime.end.p0(i64 4, ptr %13) #5
  call void @llvm.lifetime.end.p0(i64 40, ptr %12) #5
  call void @llvm.lifetime.end.p0(i64 8, ptr %11) #5
  ret i32 %209
}