; Function Attrs: nounwind uwtable
define range(i32 -1, 1) i32 @H5FS_debug(ptr noundef %0, i64 noundef %1, ptr noundef captures(none) %2, i32 noundef %3, i32 noundef %4) local_unnamed_addr #0 {
  %6 = alloca %struct.H5FS_hdr_cache_ud_t, align 8
  call void @llvm.lifetime.start.p0(i64 40, ptr nonnull %6) #7
  %7 = load i8, ptr @H5FS_init_g, align 1, !tbaa !3, !range !7, !noundef !8
  %8 = trunc nuw i8 %7 to i1
  %9 = load i8, ptr @H5_libterm_g, align 1, !range !7
  %10 = trunc nuw i8 %9 to i1
  %11 = select i1 %8, i1 true, i1 %10
  br i1 %11, label %12, label %.thread, !prof !9

.thread:                                          ; preds = %5
  store i8 1, ptr @H5FS_init_g, align 1, !tbaa !3
  br label %15

12:                                               ; preds = %5
  %13 = xor i1 %10, true
  %14 = select i1 %8, i1 true, i1 %13
  br i1 %14, label %15, label %76, !prof !10

15:                                               ; preds = %.thread, %12
  store ptr %0, ptr %6, align 8, !tbaa !11
  %16 = getelementptr inbounds nuw i8, ptr %6, i64 8
  store i16 0, ptr %16, align 8, !tbaa !18
  %17 = getelementptr inbounds nuw i8, ptr %6, i64 16
  %18 = getelementptr inbounds nuw i8, ptr %6, i64 32
  call void @llvm.memset.p0.i64(ptr noundef nonnull align 8 dereferenceable(16) %17, i8 0, i64 16, i1 false)
  store i64 %1, ptr %18, align 8, !tbaa !19
  %19 = call ptr @H5AC_protect(ptr noundef %0, ptr noundef nonnull @H5AC_FSPACE_HDR, i64 noundef %1, ptr noundef nonnull %6, i32 noundef 128) #7
  %20 = icmp eq ptr %19, null
  br i1 %20, label %.thread68, label %24

.thread68:                                        ; preds = %15
  %21 = load i64, ptr @H5E_FSPACE_g, align 8, !tbaa !20
  %22 = load i64, ptr @H5E_CANTLOAD_g, align 8, !tbaa !20
  %23 = call i32 (ptr, ptr, i32, i64, i64, ptr, ...) @H5E_printf_stack(ptr noundef nonnull @.str, ptr noundef nonnull @__func__.H5FS_debug, i32 noundef 106, i64 noundef %21, i64 noundef %22, ptr noundef nonnull @.str.1) #7
  br label %76

24:                                               ; preds = %15
  %25 = call i32 (ptr, ptr, ...) @fprintf(ptr noundef %2, ptr noundef nonnull @.str.2, i32 noundef %3, ptr noundef nonnull @.str.3) #7
  %26 = getelementptr inbounds nuw i8, ptr %19, i64 280
  %27 = load i32, ptr %26, align 8, !tbaa !21
  %28 = icmp eq i32 %27, 0
  %29 = icmp eq i32 %27, 1
  %30 = select i1 %29, ptr @.str.7, ptr @.str.8
  %31 = select i1 %28, ptr @.str.6, ptr %30
  %32 = call i32 (ptr, ptr, ...) @fprintf(ptr noundef %2, ptr noundef nonnull @.str.4, i32 noundef %3, ptr noundef nonnull @.str.3, i32 noundef %4, ptr noundef nonnull @.str.5, ptr noundef nonnull %31) #7
  %33 = getelementptr inbounds nuw i8, ptr %19, i64 248
  %34 = load i64, ptr %33, align 8, !tbaa !33
  %35 = call i32 (ptr, ptr, ...) @fprintf(ptr noundef %2, ptr noundef nonnull @.str.9, i32 noundef %3, ptr noundef nonnull @.str.3, i32 noundef %4, ptr noundef nonnull @.str.10, i64 noundef %34) #7
  %36 = getelementptr inbounds nuw i8, ptr %19, i64 256
  %37 = load i64, ptr %36, align 8, !tbaa !34
  %38 = call i32 (ptr, ptr, ...) @fprintf(ptr noundef %2, ptr noundef nonnull @.str.9, i32 noundef %3, ptr noundef nonnull @.str.3, i32 noundef %4, ptr noundef nonnull @.str.11, i64 noundef %37) #7
  %39 = getelementptr inbounds nuw i8, ptr %19, i64 264
  %40 = load i64, ptr %39, align 8, !tbaa !35
  %41 = call i32 (ptr, ptr, ...) @fprintf(ptr noundef %2, ptr noundef nonnull @.str.9, i32 noundef %3, ptr noundef nonnull @.str.3, i32 noundef %4, ptr noundef nonnull @.str.12, i64 noundef %40) #7
  %42 = getelementptr inbounds nuw i8, ptr %19, i64 272
  %43 = load i64, ptr %42, align 8, !tbaa !36
  %44 = call i32 (ptr, ptr, ...) @fprintf(ptr noundef %2, ptr noundef nonnull @.str.9, i32 noundef %3, ptr noundef nonnull @.str.3, i32 noundef %4, ptr noundef nonnull @.str.13, i64 noundef %43) #7
  %45 = getelementptr inbounds nuw i8, ptr %19, i64 284
  %46 = load i16, ptr %45, align 4, !tbaa !37
  %47 = zext i16 %46 to i32
  %48 = call i32 (ptr, ptr, ...) @fprintf(ptr noundef %2, ptr noundef nonnull @.str.14, i32 noundef %3, ptr noundef nonnull @.str.3, i32 noundef %4, ptr noundef nonnull @.str.15, i32 noundef %47) #7
  %49 = getelementptr inbounds nuw i8, ptr %19, i64 288
  %50 = load i32, ptr %49, align 8, !tbaa !38
  %51 = call i32 (ptr, ptr, ...) @fprintf(ptr noundef %2, ptr noundef nonnull @.str.16, i32 noundef %3, ptr noundef nonnull @.str.3, i32 noundef %4, ptr noundef nonnull @.str.17, i32 noundef %50) #7
  %52 = getelementptr inbounds nuw i8, ptr %19, i64 292
  %53 = load i32, ptr %52, align 4, !tbaa !39
  %54 = call i32 (ptr, ptr, ...) @fprintf(ptr noundef %2, ptr noundef nonnull @.str.16, i32 noundef %3, ptr noundef nonnull @.str.3, i32 noundef %4, ptr noundef nonnull @.str.18, i32 noundef %53) #7
  %55 = getelementptr inbounds nuw i8, ptr %19, i64 296
  %56 = load i32, ptr %55, align 8, !tbaa !40
  %57 = call i32 (ptr, ptr, ...) @fprintf(ptr noundef %2, ptr noundef nonnull @.str.14, i32 noundef %3, ptr noundef nonnull @.str.3, i32 noundef %4, ptr noundef nonnull @.str.19, i32 noundef %56) #7
  %58 = getelementptr inbounds nuw i8, ptr %19, i64 304
  %59 = load i64, ptr %58, align 8, !tbaa !41
  %60 = call i32 (ptr, ptr, ...) @fprintf(ptr noundef %2, ptr noundef nonnull @.str.9, i32 noundef %3, ptr noundef nonnull @.str.3, i32 noundef %4, ptr noundef nonnull @.str.20, i64 noundef %59) #7
  %61 = getelementptr inbounds nuw i8, ptr %19, i64 312
  %62 = load i64, ptr %61, align 8, !tbaa !42
  %63 = call i32 (ptr, ptr, ...) @fprintf(ptr noundef %2, ptr noundef nonnull @.str.9, i32 noundef %3, ptr noundef nonnull @.str.3, i32 noundef %4, ptr noundef nonnull @.str.21, i64 noundef %62) #7
  %64 = getelementptr inbounds nuw i8, ptr %19, i64 320
  %65 = load i64, ptr %64, align 8, !tbaa !43
  %66 = call i32 (ptr, ptr, ...) @fprintf(ptr noundef %2, ptr noundef nonnull @.str.9, i32 noundef %3, ptr noundef nonnull @.str.3, i32 noundef %4, ptr noundef nonnull @.str.22, i64 noundef %65) #7
  %67 = getelementptr inbounds nuw i8, ptr %19, i64 328
  %68 = load i64, ptr %67, align 8, !tbaa !44
  %69 = call i32 (ptr, ptr, ...) @fprintf(ptr noundef %2, ptr noundef nonnull @.str.9, i32 noundef %3, ptr noundef nonnull @.str.3, i32 noundef %4, ptr noundef nonnull @.str.23, i64 noundef %68) #7
  %70 = call i32 @H5AC_unprotect(ptr noundef %0, ptr noundef nonnull @H5AC_FSPACE_HDR, i64 noundef %1, ptr noundef nonnull %19, i32 noundef 0) #7
  %71 = icmp slt i32 %70, 0
  br i1 %71, label %72, label %76

72:                                               ; preds = %24
  %73 = load i64, ptr @H5E_FSPACE_g, align 8, !tbaa !20
  %74 = load i64, ptr @H5E_PROTECT_g, align 8, !tbaa !20
  %75 = call i32 (ptr, ptr, i32, i64, i64, ptr, ...) @H5E_printf_stack(ptr noundef nonnull @.str, ptr noundef nonnull @__func__.H5FS_debug, i32 noundef 143, i64 noundef %73, i64 noundef %74, ptr noundef nonnull @.str.24) #7
  br label %76

76:                                               ; preds = %.thread68, %24, %72, %12
  %.0 = phi i32 [ -1, %72 ], [ 0, %24 ], [ 0, %12 ], [ -1, %.thread68 ]
  call void @llvm.lifetime.end.p0(i64 40, ptr nonnull %6) #7
  ret i32 %.0
}